; Listing generated by Microsoft (R) Optimizing Compiler Version 15.00.30729.01 

	TITLE	D:\DEV\dev\Srcs\Client\EterLocale\StringCodec.cpp
	.686P
	.XMM
	include listing.inc
	.model	flat

INCLUDELIB LIBCMT
INCLUDELIB OLDNAMES

PUBLIC	?Ymir_WideCharToMultiByte@@YAHIKPB_WHPADHPBDPAH@Z ; Ymir_WideCharToMultiByte
EXTRN	__imp__WideCharToMultiByte@32:PROC
EXTRN	?EL_String_Encode_Vietnamese@@YAHPB_WHPADH@Z:PROC ; EL_String_Encode_Vietnamese
; Function compile flags: /Ogtp
; File d:\dev\dev\srcs\client\eterlocale\stringcodec.cpp
;	COMDAT ?Ymir_WideCharToMultiByte@@YAHIKPB_WHPADHPBDPAH@Z
_TEXT	SEGMENT
_CodePage$ = 8						; size = 4
_dwFlags$ = 12						; size = 4
_lpWideCharStr$ = 16					; size = 4
_cchWideChar$ = 20					; size = 4
_lpMultiByteStr$ = 24					; size = 4
_cbMultiByte$ = 28					; size = 4
_lpDefaultChar$ = 32					; size = 4
_lpUsedDefaultChar$ = 36				; size = 4
?Ymir_WideCharToMultiByte@@YAHIKPB_WHPADHPBDPAH@Z PROC	; Ymir_WideCharToMultiByte, COMDAT

; 15   : {

  00000	55		 push	 ebp
  00001	8b ec		 mov	 ebp, esp

; 16   : 	if (CodePage == CP_1258)

  00003	8b 45 08	 mov	 eax, DWORD PTR _CodePage$[ebp]
  00006	3d ea 04 00 00	 cmp	 eax, 1258		; 000004eaH
  0000b	75 1a		 jne	 SHORT $LN2@Ymir_WideC

; 17   : 	{
; 18   : 		return EL_String_Encode_Vietnamese(lpWideCharStr, cchWideChar, lpMultiByteStr, cbMultiByte);

  0000d	8b 45 1c	 mov	 eax, DWORD PTR _cbMultiByte$[ebp]
  00010	8b 4d 18	 mov	 ecx, DWORD PTR _lpMultiByteStr$[ebp]
  00013	8b 55 14	 mov	 edx, DWORD PTR _cchWideChar$[ebp]
  00016	50		 push	 eax
  00017	8b 45 10	 mov	 eax, DWORD PTR _lpWideCharStr$[ebp]
  0001a	51		 push	 ecx
  0001b	52		 push	 edx
  0001c	50		 push	 eax
  0001d	e8 00 00 00 00	 call	 ?EL_String_Encode_Vietnamese@@YAHPB_WHPADH@Z ; EL_String_Encode_Vietnamese
  00022	83 c4 10	 add	 esp, 16			; 00000010H

; 23   : 	}
; 24   : }

  00025	5d		 pop	 ebp
  00026	c3		 ret	 0
$LN2@Ymir_WideC:

; 19   : 	}
; 20   : 	else
; 21   : 	{
; 22   : 		return WideCharToMultiByte(CodePage, dwFlags, lpWideCharStr, cchWideChar, lpMultiByteStr, cbMultiByte, lpDefaultChar, lpUsedDefaultChar);

  00027	8b 4d 24	 mov	 ecx, DWORD PTR _lpUsedDefaultChar$[ebp]
  0002a	8b 55 20	 mov	 edx, DWORD PTR _lpDefaultChar$[ebp]
  0002d	51		 push	 ecx
  0002e	8b 4d 1c	 mov	 ecx, DWORD PTR _cbMultiByte$[ebp]
  00031	52		 push	 edx
  00032	8b 55 18	 mov	 edx, DWORD PTR _lpMultiByteStr$[ebp]
  00035	51		 push	 ecx
  00036	8b 4d 14	 mov	 ecx, DWORD PTR _cchWideChar$[ebp]
  00039	52		 push	 edx
  0003a	8b 55 10	 mov	 edx, DWORD PTR _lpWideCharStr$[ebp]
  0003d	51		 push	 ecx
  0003e	8b 4d 0c	 mov	 ecx, DWORD PTR _dwFlags$[ebp]
  00041	52		 push	 edx
  00042	51		 push	 ecx
  00043	50		 push	 eax
  00044	ff 15 00 00 00
	00		 call	 DWORD PTR __imp__WideCharToMultiByte@32

; 23   : 	}
; 24   : }

  0004a	5d		 pop	 ebp
  0004b	c3		 ret	 0
?Ymir_WideCharToMultiByte@@YAHIKPB_WHPADHPBDPAH@Z ENDP	; Ymir_WideCharToMultiByte
_TEXT	ENDS
PUBLIC	?Ymir_MultiByteToWideChar@@YAHIKPBDHPA_WH@Z	; Ymir_MultiByteToWideChar
EXTRN	__imp__MultiByteToWideChar@24:PROC
EXTRN	?EL_String_Decode_Vietnamese@@YAHPBDHPA_WH@Z:PROC ; EL_String_Decode_Vietnamese
; Function compile flags: /Ogtp
;	COMDAT ?Ymir_MultiByteToWideChar@@YAHIKPBDHPA_WH@Z
_TEXT	SEGMENT
_CodePage$ = 8						; size = 4
_dwFlags$ = 12						; size = 4
_lpMultiByteStr$ = 16					; size = 4
_cbMultiByte$ = 20					; size = 4
_lpWideCharStr$ = 24					; size = 4
_cchWideChar$ = 28					; size = 4
?Ymir_MultiByteToWideChar@@YAHIKPBDHPA_WH@Z PROC	; Ymir_MultiByteToWideChar, COMDAT

; 34   : {

  00000	55		 push	 ebp
  00001	8b ec		 mov	 ebp, esp

; 35   : 	if (CodePage == CP_1258)

  00003	8b 45 08	 mov	 eax, DWORD PTR _CodePage$[ebp]
  00006	3d ea 04 00 00	 cmp	 eax, 1258		; 000004eaH
  0000b	75 1a		 jne	 SHORT $LN2@Ymir_Multi

; 36   : 	{
; 37   : 		return EL_String_Decode_Vietnamese(lpMultiByteStr, cbMultiByte, lpWideCharStr, cchWideChar);

  0000d	8b 45 1c	 mov	 eax, DWORD PTR _cchWideChar$[ebp]
  00010	8b 4d 18	 mov	 ecx, DWORD PTR _lpWideCharStr$[ebp]
  00013	8b 55 14	 mov	 edx, DWORD PTR _cbMultiByte$[ebp]
  00016	50		 push	 eax
  00017	8b 45 10	 mov	 eax, DWORD PTR _lpMultiByteStr$[ebp]
  0001a	51		 push	 ecx
  0001b	52		 push	 edx
  0001c	50		 push	 eax
  0001d	e8 00 00 00 00	 call	 ?EL_String_Decode_Vietnamese@@YAHPBDHPA_WH@Z ; EL_String_Decode_Vietnamese
  00022	83 c4 10	 add	 esp, 16			; 00000010H

; 42   : 	}
; 43   : }

  00025	5d		 pop	 ebp
  00026	c3		 ret	 0
$LN2@Ymir_Multi:

; 38   : 	}
; 39   : 	else
; 40   : 	{
; 41   : 		return MultiByteToWideChar(CodePage, dwFlags, lpMultiByteStr, cbMultiByte, lpWideCharStr, cchWideChar);

  00027	8b 4d 1c	 mov	 ecx, DWORD PTR _cchWideChar$[ebp]
  0002a	8b 55 18	 mov	 edx, DWORD PTR _lpWideCharStr$[ebp]
  0002d	51		 push	 ecx
  0002e	8b 4d 14	 mov	 ecx, DWORD PTR _cbMultiByte$[ebp]
  00031	52		 push	 edx
  00032	8b 55 10	 mov	 edx, DWORD PTR _lpMultiByteStr$[ebp]
  00035	51		 push	 ecx
  00036	8b 4d 0c	 mov	 ecx, DWORD PTR _dwFlags$[ebp]
  00039	52		 push	 edx
  0003a	51		 push	 ecx
  0003b	50		 push	 eax
  0003c	ff 15 00 00 00
	00		 call	 DWORD PTR __imp__MultiByteToWideChar@24

; 42   : 	}
; 43   : }

  00042	5d		 pop	 ebp
  00043	c3		 ret	 0
?Ymir_MultiByteToWideChar@@YAHIKPBDHPA_WH@Z ENDP	; Ymir_MultiByteToWideChar
_TEXT	ENDS
END
